target datalayout = "e-m:e-p270:32:32-p271:32:32-p272:64:64-i64:64-i128:128-f80:128-n8:16:32:64-S128"
target triple = "x86_64-pc-linux-gnu"

%struct.color_s = type { %union.anon, i32 }
%union.anon = type { [4 x double] }

@stderr = external global ptr, align 8
@.str.74 = private unnamed_addr constant [45 x i8] c"%s:%d: claimed unreachable code was reached\0A\00", align 1
@.str.75 = private unnamed_addr constant [127 x i8] c"generated/home/dtcxzyw/WorkSpace/Projects/compilers/llvm-opt-benchmark/bench/graphviz/graphviz/plugin/core/gvrender_core_svg.c\00", align 1
@transparent = internal constant [12 x i8] c"transparent\00", align 1
@.str.103 = private unnamed_addr constant [14 x i8] c"#%02x%02x%02x\00", align 1
@none = internal constant [5 x i8] c"none\00", align 1

; Function Attrs: nounwind uwtable
define internal void @svg_print_paint(ptr noundef %0, ptr noundef byval(%struct.color_s) align 8 %1) #0 {
  %3 = alloca ptr, align 8
  store ptr %0, ptr %3, align 8, !tbaa !3
  %4 = getelementptr inbounds nuw %struct.color_s, ptr %1, i32 0, i32 1
  %5 = load i32, ptr %4, align 8, !tbaa !126
  switch i32 %5, label %44 [
    i32 4, label %6
    i32 1, label %20
  ]

6:                                                ; preds = %2
  %7 = getelementptr inbounds nuw %struct.color_s, ptr %1, i32 0, i32 0
  %8 = load ptr, ptr %7, align 8, !tbaa !47
  %9 = call i32 @strcmp(ptr noundef %8, ptr noundef @transparent) #10
  %10 = icmp ne i32 %9, 0
  br i1 %10, label %14, label %11

11:                                               ; preds = %6
  %12 = load ptr, ptr %3, align 8, !tbaa !3
  %13 = call i32 @gvputs(ptr noundef %12, ptr noundef @none)
  br label %19

14:                                               ; preds = %6
  %15 = load ptr, ptr %3, align 8, !tbaa !3
  %16 = getelementptr inbounds nuw %struct.color_s, ptr %1, i32 0, i32 0
  %17 = load ptr, ptr %16, align 8, !tbaa !47
  %18 = call i32 @gvputs(ptr noundef %15, ptr noundef %17)
  br label %19

19:                                               ; preds = %14, %11
  br label %49

20:                                               ; preds = %2
  %21 = getelementptr inbounds nuw %struct.color_s, ptr %1, i32 0, i32 0
  %22 = getelementptr inbounds [4 x i8], ptr %21, i64 0, i64 3
  %23 = load i8, ptr %22, align 1, !tbaa !47
  %24 = zext i8 %23 to i32
  %25 = icmp eq i32 %24, 0
  br i1 %25, label %26, label %29

26:                                               ; preds = %20
  %27 = load ptr, ptr %3, align 8, !tbaa !3
  %28 = call i32 @gvputs(ptr noundef %27, ptr noundef @none)
  br label %43

29:                                               ; preds = %20
  %30 = load ptr, ptr %3, align 8, !tbaa !3
  %31 = getelementptr inbounds nuw %struct.color_s, ptr %1, i32 0, i32 0
  %32 = getelementptr inbounds [4 x i8], ptr %31, i64 0, i64 0
  %33 = load i8, ptr %32, align 8, !tbaa !47
  %34 = zext i8 %33 to i32
  %35 = getelementptr inbounds nuw %struct.color_s, ptr %1, i32 0, i32 0
  %36 = getelementptr inbounds [4 x i8], ptr %35, i64 0, i64 1
  %37 = load i8, ptr %36, align 1, !tbaa !47
  %38 = zext i8 %37 to i32
  %39 = getelementptr inbounds nuw %struct.color_s, ptr %1, i32 0, i32 0
  %40 = getelementptr inbounds [4 x i8], ptr %39, i64 0, i64 2
  %41 = load i8, ptr %40, align 2, !tbaa !47
  %42 = zext i8 %41 to i32
  call void (ptr, ptr, ...) @gvprintf(ptr noundef %30, ptr noundef @.str.103, i32 noundef %34, i32 noundef %38, i32 noundef %42)
  br label %43

43:                                               ; preds = %29, %26
  br label %49

44:                                               ; preds = %2
  br label %45

45:                                               ; preds = %44
  %46 = load ptr, ptr @stderr, align 8, !tbaa !112
  %47 = call i32 (ptr, ptr, ...) @fprintf(ptr noundef %46, ptr noundef @.str.74, ptr noundef @.str.75, i32 noundef 133) #9
  call void @abort() #11
  unreachable

48:                                               ; No predecessors!
  br label %49

49:                                               ; preds = %48, %43, %19
  ret void
}