; Function Attrs: nounwind uwtable
define internal fastcc void @svg_print_paint(ptr noundef %0, ptr noundef readonly byval(%struct.color_s) align 8 captures(none) %1) unnamed_addr #0 {
  %3 = getelementptr inbounds nuw i8, ptr %1, i64 32
  %4 = load i32, ptr %3, align 8, !tbaa !114
  switch i32 %4, label %27 [
    i32 4, label %5
    i32 1, label %12
  ]

5:                                                ; preds = %2
  %6 = load ptr, ptr %1, align 8, !tbaa !46
  %7 = tail call i32 @strcmp(ptr noundef nonnull dereferenceable(1) %6, ptr noundef nonnull dereferenceable(12) @.str.265) #12
  %.not = icmp eq i32 %7, 0
  br i1 %.not, label %8, label %10

8:                                                ; preds = %5
  %9 = tail call i32 @gvputs(ptr noundef %0, ptr noundef nonnull @.str.112) #11
  br label %30

10:                                               ; preds = %5
  %11 = tail call i32 @gvputs(ptr noundef %0, ptr noundef nonnull %6) #11
  br label %30

12:                                               ; preds = %2
  %13 = getelementptr inbounds nuw i8, ptr %1, i64 3
  %14 = load i8, ptr %13, align 1, !tbaa !46
  %15 = icmp eq i8 %14, 0
  br i1 %15, label %16, label %18

16:                                               ; preds = %12
  %17 = tail call i32 @gvputs(ptr noundef %0, ptr noundef nonnull @.str.112) #11
  br label %30

18:                                               ; preds = %12
  %19 = load i8, ptr %1, align 8, !tbaa !46
  %20 = zext i8 %19 to i32
  %21 = getelementptr inbounds nuw i8, ptr %1, i64 1
  %22 = load i8, ptr %21, align 1, !tbaa !46
  %23 = zext i8 %22 to i32
  %24 = getelementptr inbounds nuw i8, ptr %1, i64 2
  %25 = load i8, ptr %24, align 2, !tbaa !46
  %26 = zext i8 %25 to i32
  tail call void (ptr, ptr, ...) @gvprintf(ptr noundef %0, ptr noundef nonnull @.str.103, i32 noundef %20, i32 noundef %23, i32 noundef %26) #11
  br label %30

27:                                               ; preds = %2
  %28 = load ptr, ptr @stderr, align 8, !tbaa !100
  %29 = tail call i32 (ptr, ptr, ...) @fprintf(ptr noundef %28, ptr noundef nonnull @.str.74, ptr noundef nonnull @.str.75, i32 noundef 133) #13
  tail call void @abort() #14
  unreachable

30:                                               ; preds = %16, %18, %8, %10
  ret void
}